; Function Attrs: nofree norecurse nosync nounwind memory(argmem: readwrite) uwtable
define void @EVP_EncodeFinal(ptr noundef captures(none) %0, ptr noundef writeonly captures(none) %1, ptr noundef writeonly captures(none) %2) local_unnamed_addr #7 {
  %4 = load i32, ptr %0, align 4, !tbaa !3
  %.not = icmp eq i32 %4, 0
  br i1 %.not, label %82, label %5

5:                                                ; preds = %3
  %6 = getelementptr inbounds nuw i8, ptr %0, i64 92
  %7 = load i32, ptr %6, align 4, !tbaa !8
  %8 = and i32 %7, 2
  %.not45.i = icmp eq i32 %8, 0
  %spec.select = select i1 %.not45.i, ptr @data_bin2ascii, ptr @srpdata_bin2ascii
  %9 = icmp sgt i32 %4, 0
  br i1 %9, label %.lr.ph.i.preheader, label %evp_encodeblock_int.exit

.lr.ph.i.preheader:                               ; preds = %5
  %10 = getelementptr inbounds nuw i8, ptr %0, i64 8
  br label %.lr.ph.i

.lr.ph.i:                                         ; preds = %.lr.ph.i.preheader, %42
  %.04050.i = phi i32 [ %69, %42 ], [ 0, %.lr.ph.i.preheader ]
  %.04149.i = phi i32 [ %71, %42 ], [ %4, %.lr.ph.i.preheader ]
  %.04248.i = phi ptr [ %.1.i, %42 ], [ %1, %.lr.ph.i.preheader ]
  %.04346.i = phi ptr [ %70, %42 ], [ %10, %.lr.ph.i.preheader ]
  %11 = icmp samesign ugt i32 %.04149.i, 2
  %12 = load i8, ptr %.04346.i, align 1, !tbaa !12
  %13 = zext i8 %12 to i64
  %14 = shl nuw nsw i64 %13, 16
  br i1 %11, label %42, label %15

15:                                               ; preds = %.lr.ph.i
  %16 = icmp eq i32 %.04149.i, 2
  br i1 %16, label %17, label %23

17:                                               ; preds = %15
  %18 = getelementptr inbounds nuw i8, ptr %.04346.i, i64 1
  %19 = load i8, ptr %18, align 1, !tbaa !12
  %20 = zext i8 %19 to i64
  %21 = shl nuw nsw i64 %20, 8
  %22 = or disjoint i64 %21, %14
  br label %23

23:                                               ; preds = %17, %15
  %.039.i = phi i64 [ %22, %17 ], [ %14, %15 ]
  %24 = lshr i64 %.039.i, 18
  %25 = getelementptr inbounds nuw i8, ptr %spec.select, i64 %24
  %26 = load i8, ptr %25, align 1, !tbaa !12
  %27 = getelementptr inbounds nuw i8, ptr %.04248.i, i64 1
  store i8 %26, ptr %.04248.i, align 1, !tbaa !12
  %28 = lshr i64 %.039.i, 12
  %29 = and i64 %28, 63
  %30 = getelementptr inbounds nuw i8, ptr %spec.select, i64 %29
  %31 = load i8, ptr %30, align 1, !tbaa !12
  %32 = getelementptr inbounds nuw i8, ptr %.04248.i, i64 2
  store i8 %31, ptr %27, align 1, !tbaa !12
  %33 = icmp eq i32 %.04149.i, 1
  br i1 %33, label %.thread.i, label %34

34:                                               ; preds = %23
  %35 = lshr i64 %.039.i, 6
  %36 = and i64 %35, 63
  %37 = getelementptr inbounds nuw i8, ptr %spec.select, i64 %36
  %38 = load i8, ptr %37, align 1, !tbaa !12
  br label %.thread.i

.thread.i:                                        ; preds = %34, %23
  %39 = phi i8 [ %38, %34 ], [ 61, %23 ]
  %40 = getelementptr inbounds nuw i8, ptr %.04248.i, i64 3
  store i8 %39, ptr %32, align 1, !tbaa !12
  store i8 61, ptr %40, align 1, !tbaa !12
  %.152.i = getelementptr inbounds nuw i8, ptr %.04248.i, i64 4
  %41 = add nuw nsw i32 %.04050.i, 4
  br label %evp_encodeblock_int.exit

42:                                               ; preds = %.lr.ph.i
  %43 = getelementptr inbounds nuw i8, ptr %.04346.i, i64 1
  %44 = load i8, ptr %43, align 1, !tbaa !12
  %45 = zext i8 %44 to i64
  %46 = shl nuw nsw i64 %45, 8
  %47 = getelementptr inbounds nuw i8, ptr %.04346.i, i64 2
  %48 = load i8, ptr %47, align 1, !tbaa !12
  %49 = zext i8 %48 to i64
  %50 = or disjoint i64 %46, %49
  %51 = or disjoint i64 %46, %14
  %52 = lshr i64 %13, 2
  %53 = getelementptr inbounds nuw i8, ptr %spec.select, i64 %52
  %54 = load i8, ptr %53, align 1, !tbaa !12
  %55 = getelementptr inbounds nuw i8, ptr %.04248.i, i64 1
  store i8 %54, ptr %.04248.i, align 1, !tbaa !12
  %56 = lshr i64 %51, 12
  %57 = and i64 %56, 63
  %58 = getelementptr inbounds nuw i8, ptr %spec.select, i64 %57
  %59 = load i8, ptr %58, align 1, !tbaa !12
  %60 = getelementptr inbounds nuw i8, ptr %.04248.i, i64 2
  store i8 %59, ptr %55, align 1, !tbaa !12
  %61 = lshr i64 %50, 6
  %62 = and i64 %61, 63
  %63 = getelementptr inbounds nuw i8, ptr %spec.select, i64 %62
  %64 = load i8, ptr %63, align 1, !tbaa !12
  %65 = getelementptr inbounds nuw i8, ptr %.04248.i, i64 3
  store i8 %64, ptr %60, align 1, !tbaa !12
  %66 = and i64 %49, 63
  %67 = getelementptr inbounds nuw i8, ptr %spec.select, i64 %66
  %68 = load i8, ptr %67, align 1, !tbaa !12
  store i8 %68, ptr %65, align 1, !tbaa !12
  %.1.i = getelementptr inbounds nuw i8, ptr %.04248.i, i64 4
  %69 = add nuw nsw i32 %.04050.i, 4
  %70 = getelementptr inbounds nuw i8, ptr %.04346.i, i64 3
  %71 = add nsw i32 %.04149.i, -3
  %.not58.i = icmp eq i32 %.04149.i, 3
  br i1 %.not58.i, label %evp_encodeblock_int.exit, label %.lr.ph.i, !llvm.loop !13

evp_encodeblock_int.exit:                         ; preds = %42, %5, %.thread.i
  %.042.lcssa.i = phi ptr [ %1, %5 ], [ %.152.i, %.thread.i ], [ %.1.i, %42 ]
  %.040.lcssa.i = phi i32 [ 0, %5 ], [ %41, %.thread.i ], [ %69, %42 ]
  store i8 0, ptr %.042.lcssa.i, align 1, !tbaa !12
  %72 = load i32, ptr %6, align 4, !tbaa !8
  %73 = and i32 %72, 1
  %74 = icmp eq i32 %73, 0
  br i1 %74, label %75, label %79

75:                                               ; preds = %evp_encodeblock_int.exit
  %76 = add i32 %.040.lcssa.i, 1
  %77 = zext i32 %.040.lcssa.i to i64
  %78 = getelementptr inbounds nuw i8, ptr %1, i64 %77
  store i8 10, ptr %78, align 1, !tbaa !12
  br label %79

79:                                               ; preds = %75, %evp_encodeblock_int.exit
  %.1 = phi i32 [ %76, %75 ], [ %.040.lcssa.i, %evp_encodeblock_int.exit ]
  %80 = zext i32 %.1 to i64
  %81 = getelementptr inbounds nuw i8, ptr %1, i64 %80
  store i8 0, ptr %81, align 1, !tbaa !12
  store i32 0, ptr %0, align 4, !tbaa !3
  br label %82

82:                                               ; preds = %79, %3
  %.0 = phi i32 [ %.1, %79 ], [ 0, %3 ]
  store i32 %.0, ptr %2, align 4, !tbaa !11
  ret void
}